; Function Attrs: nounwind uwtable
define zeroext range(i8 0, 3) i8 @l_compareOn___at_Lean_Elab_InfoTree_hoverableInfoAt_x3f___spec__12(ptr noundef %0, ptr noundef %1, ptr noundef %2) local_unnamed_addr #0 {
  %4 = ptrtoint ptr %0 to i64
  %5 = and i64 %4, 1
  %.not = icmp eq i64 %5, 0
  br i1 %.not, label %6, label %lean_inc.exit

6:                                                ; preds = %3
  %.val.i = load i32, ptr %0, align 4, !tbaa !4
  %7 = icmp sgt i32 %.val.i, 0
  br i1 %7, label %8, label %10, !prof !15

8:                                                ; preds = %6
  %9 = add nuw i32 %.val.i, 1
  store i32 %9, ptr %0, align 4, !tbaa !4
  br label %lean_inc.exit

10:                                               ; preds = %6
  %.not.i29 = icmp eq i32 %.val.i, 0
  br i1 %.not.i29, label %lean_inc.exit, label %11

11:                                               ; preds = %10
  tail call void @lean_inc_ref_cold(ptr noundef nonnull %0) #7
  br label %lean_inc.exit

lean_inc.exit:                                    ; preds = %11, %10, %8, %3
  %12 = tail call ptr @lean_apply_1(ptr noundef %0, ptr noundef %1) #7
  %13 = tail call ptr @lean_apply_1(ptr noundef %0, ptr noundef %2) #7
  %14 = ptrtoint ptr %12 to i64
  %15 = and i64 %14, 1
  %.not33 = icmp eq i64 %15, 0
  br i1 %.not33, label %lean_nat_lt.exit.thread31, label %16, !prof !16

16:                                               ; preds = %lean_inc.exit
  %17 = ptrtoint ptr %13 to i64
  %18 = and i64 %17, 1
  %.not34 = icmp eq i64 %18, 0
  br i1 %.not34, label %lean_nat_lt.exit, label %lean_nat_lt.exit.thread, !prof !16

lean_nat_lt.exit:                                 ; preds = %16
  %19 = tail call zeroext i1 @lean_nat_big_lt(ptr noundef %12, ptr noundef %13) #7
  br i1 %19, label %.thread56, label %lean_nat_eq.exit.thread49

lean_nat_eq.exit.thread49:                        ; preds = %lean_nat_lt.exit
  %20 = tail call zeroext i1 @lean_nat_big_eq(ptr noundef %12, ptr noundef %13) #7
  br label %25

lean_nat_lt.exit.thread31:                        ; preds = %lean_inc.exit
  %21 = tail call zeroext i1 @lean_nat_big_lt(ptr noundef %12, ptr noundef %13) #7
  %.pre41 = ptrtoint ptr %13 to i64
  %.pre43 = and i64 %.pre41, 1
  %22 = icmp eq i64 %.pre43, 0
  br i1 %21, label %39, label %lean_nat_eq.exit

lean_nat_lt.exit.thread:                          ; preds = %16
  %.not35 = icmp ult ptr %12, %13
  br i1 %.not35, label %lean_dec.exit, label %lean_dec.exit20.thread54

lean_dec.exit20.thread54:                         ; preds = %lean_nat_lt.exit.thread
  %23 = icmp eq ptr %12, %13
  br label %lean_dec.exit19

lean_nat_eq.exit:                                 ; preds = %lean_nat_lt.exit.thread31
  %24 = tail call zeroext i1 @lean_nat_big_eq(ptr noundef %12, ptr noundef %13) #7
  br i1 %22, label %25, label %lean_dec.exit20.thread

25:                                               ; preds = %lean_nat_eq.exit.thread49, %lean_nat_eq.exit
  %26 = phi i1 [ %20, %lean_nat_eq.exit.thread49 ], [ %24, %lean_nat_eq.exit ]
  %27 = load i32, ptr %13, align 4, !tbaa !4
  %28 = icmp sgt i32 %27, 1
  br i1 %28, label %29, label %31, !prof !15

29:                                               ; preds = %25
  %30 = add nsw i32 %27, -1
  store i32 %30, ptr %13, align 4, !tbaa !4
  br label %lean_dec.exit20

31:                                               ; preds = %25
  %.not.i = icmp eq i32 %27, 0
  br i1 %.not.i, label %lean_dec.exit20, label %32

32:                                               ; preds = %31
  tail call void @lean_dec_ref_cold(ptr noundef nonnull %13) #7
  br label %lean_dec.exit20

lean_dec.exit20:                                  ; preds = %32, %31, %29
  br i1 %.not33, label %lean_dec.exit20.thread, label %lean_dec.exit19

lean_dec.exit20.thread:                           ; preds = %lean_nat_eq.exit, %lean_dec.exit20
  %.0.i4853 = phi i1 [ %26, %lean_dec.exit20 ], [ %24, %lean_nat_eq.exit ]
  %33 = load i32, ptr %12, align 4, !tbaa !4
  %34 = icmp sgt i32 %33, 1
  br i1 %34, label %35, label %37, !prof !15

35:                                               ; preds = %lean_dec.exit20.thread
  %36 = add nsw i32 %33, -1
  store i32 %36, ptr %12, align 4, !tbaa !4
  br label %lean_dec.exit19

37:                                               ; preds = %lean_dec.exit20.thread
  %.not.i21 = icmp eq i32 %33, 0
  br i1 %.not.i21, label %lean_dec.exit19, label %38

38:                                               ; preds = %37
  tail call void @lean_dec_ref_cold(ptr noundef nonnull %12) #7
  br label %lean_dec.exit19

lean_dec.exit19:                                  ; preds = %lean_dec.exit20.thread54, %38, %37, %35, %lean_dec.exit20
  %.0.i4852 = phi i1 [ %.0.i4853, %38 ], [ %.0.i4853, %37 ], [ %.0.i4853, %35 ], [ %26, %lean_dec.exit20 ], [ %23, %lean_dec.exit20.thread54 ]
  %. = select i1 %.0.i4852, i8 1, i8 2
  br label %lean_dec.exit

39:                                               ; preds = %lean_nat_lt.exit.thread31
  br i1 %22, label %.thread56, label %lean_dec.exit18.thread

.thread56:                                        ; preds = %lean_nat_lt.exit, %39
  %40 = load i32, ptr %13, align 4, !tbaa !4
  %41 = icmp sgt i32 %40, 1
  br i1 %41, label %42, label %44, !prof !15

42:                                               ; preds = %.thread56
  %43 = add nsw i32 %40, -1
  store i32 %43, ptr %13, align 4, !tbaa !4
  br label %lean_dec.exit18

44:                                               ; preds = %.thread56
  %.not.i23 = icmp eq i32 %40, 0
  br i1 %.not.i23, label %lean_dec.exit18, label %45

45:                                               ; preds = %44
  tail call void @lean_dec_ref_cold(ptr noundef nonnull %13) #7
  br label %lean_dec.exit18

lean_dec.exit18:                                  ; preds = %45, %44, %42
  br i1 %.not33, label %lean_dec.exit18.thread, label %lean_dec.exit

lean_dec.exit18.thread:                           ; preds = %39, %lean_dec.exit18
  %46 = load i32, ptr %12, align 4, !tbaa !4
  %47 = icmp sgt i32 %46, 1
  br i1 %47, label %48, label %50, !prof !15

48:                                               ; preds = %lean_dec.exit18.thread
  %49 = add nsw i32 %46, -1
  store i32 %49, ptr %12, align 4, !tbaa !4
  br label %lean_dec.exit

50:                                               ; preds = %lean_dec.exit18.thread
  %.not.i25 = icmp eq i32 %46, 0
  br i1 %.not.i25, label %lean_dec.exit, label %51

51:                                               ; preds = %50
  tail call void @lean_dec_ref_cold(ptr noundef nonnull %12) #7
  br label %lean_dec.exit

lean_dec.exit:                                    ; preds = %lean_nat_lt.exit.thread, %lean_dec.exit18, %48, %50, %51, %lean_dec.exit19
  %.1 = phi i8 [ %., %lean_dec.exit19 ], [ 0, %51 ], [ 0, %50 ], [ 0, %48 ], [ 0, %lean_dec.exit18 ], [ 0, %lean_nat_lt.exit.thread ]
  ret i8 %.1
}